; Function Attrs: mustprogress uwtable
define void @_ZN5rfb_t16set_pixel_formatERKNSt7__cxx1112basic_stringIcSt11char_traitsIcESaIcEEE(ptr nocapture nonnull readnone align 8 %0, ptr noundef nonnull align 8 dereferenceable(32) %1) local_unnamed_addr #0 align 2 personality ptr @__gxx_personality_v0 {
  %3 = alloca %"class.std::__cxx11::basic_string", align 8
  %4 = alloca %"class.std::__cxx11::basic_string", align 8
  %5 = getelementptr inbounds i8, ptr %1, i64 8
  %6 = load i64, ptr %5, align 8
  %.not = icmp eq i64 %6, 20
  br i1 %.not, label %_ZNKSt7__cxx1112basic_stringIcSt11char_traitsIcESaIcEE6substrEmm.exit, label %.critedge.thread

_ZNKSt7__cxx1112basic_stringIcSt11char_traitsIcESaIcEE6substrEmm.exit: ; preds = %2
  call void @_ZNSt7__cxx1112basic_stringIcSt11char_traitsIcESaIcEEC2ERKS4_mm(ptr noundef nonnull align 8 dereferenceable(32) %3, ptr noundef nonnull align 8 dereferenceable(32) %1, i64 noundef 4, i64 noundef 16)
  invoke void @_ZN5rfb_t12pixel_formatB5cxx11Ev(ptr dead_on_unwind nonnull writable sret(%"class.std::__cxx11::basic_string") align 8 %4, ptr nonnull align 8 poison)
          to label %7 unwind label %31

7:                                                ; preds = %_ZNKSt7__cxx1112basic_stringIcSt11char_traitsIcESaIcEE6substrEmm.exit
  %8 = getelementptr inbounds i8, ptr %3, i64 8
  %9 = load i64, ptr %8, align 8
  %10 = getelementptr inbounds i8, ptr %4, i64 8
  %11 = load i64, ptr %10, align 8
  %12 = icmp eq i64 %9, %11
  br i1 %12, label %13, label %._crit_edge

._crit_edge:                                      ; preds = %7
  %.pre = load ptr, ptr %4, align 8
  br label %18

13:                                               ; preds = %7
  %14 = icmp eq i64 %9, 0
  %.pre14 = load ptr, ptr %4, align 8
  br i1 %14, label %18, label %15

15:                                               ; preds = %13
  %16 = load ptr, ptr %3, align 8
  %bcmp.i = call i32 @bcmp(ptr %16, ptr %.pre14, i64 %9)
  %17 = icmp ne i32 %bcmp.i, 0
  br label %18

18:                                               ; preds = %._crit_edge, %15, %13
  %19 = phi ptr [ %.pre, %._crit_edge ], [ %.pre14, %15 ], [ %.pre14, %13 ]
  %20 = phi i1 [ true, %._crit_edge ], [ %17, %15 ], [ false, %13 ]
  %21 = getelementptr inbounds i8, ptr %4, i64 16
  %22 = icmp eq ptr %19, %21
  br i1 %22, label %_ZNKSt7__cxx1112basic_stringIcSt11char_traitsIcESaIcEE11_M_is_localEv.exit.thread.i.i, label %_ZNKSt7__cxx1112basic_stringIcSt11char_traitsIcESaIcEE11_M_is_localEv.exit.i.i

_ZNKSt7__cxx1112basic_stringIcSt11char_traitsIcESaIcEE11_M_is_localEv.exit.thread.i.i: ; preds = %18
  %23 = icmp ult i64 %11, 16
  call void @llvm.assume(i1 %23)
  br label %_ZNSt7__cxx1112basic_stringIcSt11char_traitsIcESaIcEED2Ev.exit

_ZNKSt7__cxx1112basic_stringIcSt11char_traitsIcESaIcEE11_M_is_localEv.exit.i.i: ; preds = %18
  call void @_ZdlPv(ptr noundef %19) #25
  br label %_ZNSt7__cxx1112basic_stringIcSt11char_traitsIcESaIcEED2Ev.exit

_ZNSt7__cxx1112basic_stringIcSt11char_traitsIcESaIcEED2Ev.exit: ; preds = %_ZNKSt7__cxx1112basic_stringIcSt11char_traitsIcESaIcEE11_M_is_localEv.exit.thread.i.i, %_ZNKSt7__cxx1112basic_stringIcSt11char_traitsIcESaIcEE11_M_is_localEv.exit.i.i
  call void @_ZNSaIcED2Ev(ptr noundef nonnull align 1 dereferenceable(1) %4) #23
  %24 = load ptr, ptr %3, align 8
  %25 = getelementptr inbounds i8, ptr %3, i64 16
  %26 = icmp eq ptr %24, %25
  br i1 %26, label %_ZNKSt7__cxx1112basic_stringIcSt11char_traitsIcESaIcEE11_M_is_localEv.exit.thread.i.i12, label %_ZNKSt7__cxx1112basic_stringIcSt11char_traitsIcESaIcEE11_M_is_localEv.exit.i.i11

_ZNKSt7__cxx1112basic_stringIcSt11char_traitsIcESaIcEE11_M_is_localEv.exit.thread.i.i12: ; preds = %_ZNSt7__cxx1112basic_stringIcSt11char_traitsIcESaIcEED2Ev.exit
  %27 = load i64, ptr %8, align 8
  %28 = icmp ult i64 %27, 16
  call void @llvm.assume(i1 %28)
  br label %.critedge

_ZNKSt7__cxx1112basic_stringIcSt11char_traitsIcESaIcEE11_M_is_localEv.exit.i.i11: ; preds = %_ZNSt7__cxx1112basic_stringIcSt11char_traitsIcESaIcEED2Ev.exit
  call void @_ZdlPv(ptr noundef %24) #25
  br label %.critedge

.critedge:                                        ; preds = %_ZNKSt7__cxx1112basic_stringIcSt11char_traitsIcESaIcEE11_M_is_localEv.exit.i.i11, %_ZNKSt7__cxx1112basic_stringIcSt11char_traitsIcESaIcEE11_M_is_localEv.exit.thread.i.i12
  call void @_ZNSaIcED2Ev(ptr noundef nonnull align 1 dereferenceable(1) %3) #23
  br i1 %20, label %.critedge.thread, label %35

.critedge.thread:                                 ; preds = %2, %.critedge
  %29 = call ptr @__cxa_allocate_exception(i64 16) #23
  invoke void @_ZNSt13runtime_errorC1EPKc(ptr noundef nonnull align 8 dereferenceable(16) %29, ptr noundef nonnull @.str.9)
          to label %30 unwind label %33

30:                                               ; preds = %.critedge.thread
  call void @__cxa_throw(ptr nonnull %29, ptr nonnull @_ZTISt13runtime_error, ptr nonnull @_ZNSt13runtime_errorD1Ev) #24
  unreachable

31:                                               ; preds = %_ZNKSt7__cxx1112basic_stringIcSt11char_traitsIcESaIcEE6substrEmm.exit
  %32 = landingpad { ptr, i32 }
          cleanup
  call void @_ZNSt7__cxx1112basic_stringIcSt11char_traitsIcESaIcEED2Ev(ptr noundef nonnull align 8 dereferenceable(32) %3) #23
  br label %36

33:                                               ; preds = %.critedge.thread
  %34 = landingpad { ptr, i32 }
          cleanup
  call void @__cxa_free_exception(ptr %29) #23
  br label %36

35:                                               ; preds = %.critedge
  ret void

36:                                               ; preds = %31, %33
  %.pn = phi { ptr, i32 } [ %34, %33 ], [ %32, %31 ]
  resume { ptr, i32 } %.pn
}